target datalayout = "e-m:e-p270:32:32-p271:32:32-p272:64:64-i64:64-i128:128-f80:128-n8:16:32:64-S128"
target triple = "x86_64-unknown-linux-gnu"

%struct.QTailQLink = type { ptr, ptr }
%struct.CompareState = type { %struct.Object, ptr, ptr, ptr, ptr, %struct.CharBackend, %struct.CharBackend, %struct.CharBackend, %struct.CharBackend, %struct.SocketReadState, %struct.SocketReadState, %struct.SocketReadState, %struct.SendCo, %struct.SendCo, i8, i64, i32, %struct._GQueue, ptr, ptr, ptr, ptr, ptr, i32, %union.anon.0 }
%struct.Object = type { ptr, ptr, ptr, i32, ptr }
%struct.CharBackend = type { ptr, ptr, ptr, ptr, ptr, ptr, i32, i32 }
%struct.SocketReadState = type { i32, i8, i32, i32, i32, [69632 x i8], ptr }
%struct.SendCo = type { ptr, ptr, ptr, %struct._GQueue, i8, i8, i32 }
%struct._GQueue = type { ptr, ptr, i32 }
%union.anon.0 = type { %struct.QTailQLink }

; Function Attrs: nounwind sspstrong uwtable
define internal i64 @qemu_clock_get_ms(i32 noundef %type) #0 {
entry:
  %type.addr = alloca i32, align 4
  store i32 %type, ptr %type.addr, align 4
  %0 = load i32, ptr %type.addr, align 4
  %call = call i64 @qemu_clock_get_ns(i32 noundef %0)
  %div = sdiv i64 %call, 1000000
  ret i64 %div
}

; Function Attrs: nounwind sspstrong uwtable
define internal void @colo_old_packet_check(ptr noundef %opaque) #0 {
entry:
  %opaque.addr = alloca ptr, align 8
  %s = alloca ptr, align 8
  store ptr %opaque, ptr %opaque.addr, align 8
  %0 = load ptr, ptr %opaque.addr, align 8
  store ptr %0, ptr %s, align 8
  %1 = load ptr, ptr %s, align 8
  %conn_list = getelementptr inbounds %struct.CompareState, ptr %1, i32 0, i32 17
  %2 = load ptr, ptr %s, align 8
  %call = call ptr @g_queue_find_custom(ptr noundef %conn_list, ptr noundef %2, ptr noundef @colo_old_packet_check_one_conn)
  ret void
}

; Function Attrs: nounwind sspstrong uwtable
define internal void @check_old_packet_regular(ptr noundef %opaque) #0 {
entry:
  %opaque.addr = alloca ptr, align 8
  %s = alloca ptr, align 8
  store ptr %opaque, ptr %opaque.addr, align 8
  %0 = load ptr, ptr %opaque.addr, align 8
  store ptr %0, ptr %s, align 8
  %1 = load ptr, ptr %s, align 8
  call void @colo_old_packet_check(ptr noundef %1)
  %2 = load ptr, ptr %s, align 8
  %packet_check_timer = getelementptr inbounds %struct.CompareState, ptr %2, i32 0, i32 21
  %3 = load ptr, ptr %packet_check_timer, align 8
  %call = call i64 @qemu_clock_get_ms(i32 noundef 2)
  %4 = load ptr, ptr %s, align 8
  %expired_scan_cycle = getelementptr inbounds %struct.CompareState, ptr %4, i32 0, i32 16
  %5 = load i32, ptr %expired_scan_cycle, align 8
  %conv = zext i32 %5 to i64
  %add = add i64 %call, %conv
  call void @timer_mod(ptr noundef %3, i64 noundef %add)
  ret void
}