; Function Attrs: nounwind sspstrong uwtable
define internal void @check_old_packet_regular(ptr noundef %opaque) #0 {
entry:
  %conn_list.i = getelementptr inbounds nuw i8, ptr %opaque, i64 209424
  %call.i = tail call ptr @g_queue_find_custom(ptr noundef nonnull %conn_list.i, ptr noundef %opaque, ptr noundef nonnull @colo_old_packet_check_one_conn) #16
  %packet_check_timer = getelementptr inbounds nuw i8, ptr %opaque, i64 209472
  %0 = load ptr, ptr %packet_check_timer, align 8
  %call.i3 = tail call i64 @qemu_clock_get_ns(i32 noundef 2) #16
  %div.i = sdiv i64 %call.i3, 1000000
  %expired_scan_cycle = getelementptr inbounds nuw i8, ptr %opaque, i64 209416
  %1 = load i32, ptr %expired_scan_cycle, align 8
  %conv = zext i32 %1 to i64
  %add = add nsw i64 %div.i, %conv
  tail call void @timer_mod(ptr noundef %0, i64 noundef %add) #16
  ret void
}